target datalayout = "e-m:e-p270:32:32-p271:32:32-p272:64:64-i64:64-i128:128-f80:128-n8:16:32:64-S128"
target triple = "x86_64-pc-linux-gnu"

%struct.dt_action_t = type { i32, ptr, ptr, ptr, ptr, ptr }
%struct.dt_control_image_enumerator_t = type { ptr, i32, ptr, i32 }
%struct.dt_control_export_t = type { i32, i32, i32, i32, ptr, i32, i32, i32, [128 x i8], i32, i32, ptr, i32, ptr }
%struct.dt_imageio_module_storage_t = type { %struct.dt_action_t, ptr, ptr, ptr, ptr, ptr, ptr, ptr, ptr, ptr, ptr, ptr, ptr, ptr, ptr, ptr, ptr, ptr, ptr, ptr, ptr, ptr, [128 x i8], ptr, ptr, ptr, i32 }

; Function Attrs: nounwind uwtable
define internal void @dt_control_image_enumerator_cleanup(ptr noundef %0) #0 {
  %2 = alloca ptr, align 8
  %3 = alloca ptr, align 8
  store ptr %0, ptr %2, align 8, !tbaa !6
  call void @llvm.lifetime.start.p0(i64 8, ptr %3) #14
  %4 = load ptr, ptr %2, align 8, !tbaa !6
  store ptr %4, ptr %3, align 8, !tbaa !53
  %5 = load ptr, ptr %3, align 8, !tbaa !53
  %6 = getelementptr inbounds nuw %struct.dt_control_image_enumerator_t, ptr %5, i32 0, i32 0
  %7 = load ptr, ptr %6, align 8, !tbaa !57
  call void @g_list_free(ptr noundef %7)
  %8 = load ptr, ptr %3, align 8, !tbaa !53
  %9 = getelementptr inbounds nuw %struct.dt_control_image_enumerator_t, ptr %8, i32 0, i32 0
  store ptr null, ptr %9, align 8, !tbaa !57
  %10 = load ptr, ptr %3, align 8, !tbaa !53
  %11 = getelementptr inbounds nuw %struct.dt_control_image_enumerator_t, ptr %10, i32 0, i32 3
  %12 = load i32, ptr %11, align 8, !tbaa !55
  %13 = icmp ne i32 %12, 0
  br i1 %13, label %14, label %15

14:                                               ; preds = %1
  call void @g_main_context_invoke(ptr noundef null, ptr noundef @_cursor_clear_busy, ptr noundef null)
  br label %15

15:                                               ; preds = %14, %1
  %16 = load ptr, ptr %3, align 8, !tbaa !53
  call void @free(ptr noundef %16) #14
  call void @llvm.lifetime.end.p0(i64 8, ptr %3) #14
  ret void
}

; Function Attrs: nounwind uwtable
define internal void @dt_control_export_cleanup(ptr noundef %0) #0 {
  %2 = alloca ptr, align 8
  %3 = alloca ptr, align 8
  %4 = alloca ptr, align 8
  %5 = alloca ptr, align 8
  %6 = alloca ptr, align 8
  store ptr %0, ptr %2, align 8, !tbaa !6
  call void @llvm.lifetime.start.p0(i64 8, ptr %3) #14
  %7 = load ptr, ptr %2, align 8, !tbaa !6
  store ptr %7, ptr %3, align 8, !tbaa !53
  call void @llvm.lifetime.start.p0(i64 8, ptr %4) #14
  %8 = load ptr, ptr %3, align 8, !tbaa !53
  %9 = getelementptr inbounds nuw %struct.dt_control_image_enumerator_t, ptr %8, i32 0, i32 2
  %10 = load ptr, ptr %9, align 8, !tbaa !59
  store ptr %10, ptr %4, align 8, !tbaa !169
  call void @llvm.lifetime.start.p0(i64 8, ptr %5) #14
  %11 = load ptr, ptr %4, align 8, !tbaa !169
  %12 = getelementptr inbounds nuw %struct.dt_control_export_t, ptr %11, i32 0, i32 3
  %13 = load i32, ptr %12, align 4, !tbaa !176
  %14 = call ptr @dt_imageio_get_storage_by_index(i32 noundef %13)
  store ptr %14, ptr %5, align 8, !tbaa !177
  call void @llvm.lifetime.start.p0(i64 8, ptr %6) #14
  %15 = load ptr, ptr %4, align 8, !tbaa !169
  %16 = getelementptr inbounds nuw %struct.dt_control_export_t, ptr %15, i32 0, i32 4
  %17 = load ptr, ptr %16, align 8, !tbaa !186
  store ptr %17, ptr %6, align 8, !tbaa !184
  %18 = load ptr, ptr %5, align 8, !tbaa !177
  %19 = getelementptr inbounds nuw %struct.dt_imageio_module_storage_t, ptr %18, i32 0, i32 16
  %20 = load ptr, ptr %19, align 8, !tbaa !217
  %21 = load ptr, ptr %5, align 8, !tbaa !177
  %22 = load ptr, ptr %6, align 8, !tbaa !184
  call void %20(ptr noundef %21, ptr noundef %22)
  %23 = load ptr, ptr %4, align 8, !tbaa !169
  %24 = getelementptr inbounds nuw %struct.dt_control_export_t, ptr %23, i32 0, i32 11
  %25 = load ptr, ptr %24, align 8, !tbaa !192
  call void @g_free(ptr noundef %25)
  %26 = load ptr, ptr %4, align 8, !tbaa !169
  %27 = getelementptr inbounds nuw %struct.dt_control_export_t, ptr %26, i32 0, i32 13
  %28 = load ptr, ptr %27, align 8, !tbaa !194
  call void @g_free(ptr noundef %28)
  %29 = load ptr, ptr %3, align 8, !tbaa !53
  %30 = getelementptr inbounds nuw %struct.dt_control_image_enumerator_t, ptr %29, i32 0, i32 2
  %31 = load ptr, ptr %30, align 8, !tbaa !59
  call void @free(ptr noundef %31) #14
  %32 = load ptr, ptr %3, align 8, !tbaa !53
  call void @dt_control_image_enumerator_cleanup(ptr noundef %32)
  call void @llvm.lifetime.end.p0(i64 8, ptr %6) #14
  call void @llvm.lifetime.end.p0(i64 8, ptr %5) #14
  call void @llvm.lifetime.end.p0(i64 8, ptr %4) #14
  call void @llvm.lifetime.end.p0(i64 8, ptr %3) #14
  ret void
}