; Function Attrs: nounwind uwtable
define internal void @dt_control_export_cleanup(ptr noundef captures(none) %0) #0 {
  %2 = getelementptr inbounds nuw i8, ptr %0, i64 16
  %3 = load ptr, ptr %2, align 8, !tbaa !52
  %4 = getelementptr inbounds nuw i8, ptr %3, i64 12
  %5 = load i32, ptr %4, align 4, !tbaa !158
  %6 = tail call ptr @dt_imageio_get_storage_by_index(i32 noundef %5) #17
  %7 = getelementptr inbounds nuw i8, ptr %3, i64 16
  %8 = load ptr, ptr %7, align 8, !tbaa !166
  %9 = getelementptr inbounds nuw i8, ptr %6, i64 168
  %10 = load ptr, ptr %9, align 8, !tbaa !199
  tail call void %10(ptr noundef %6, ptr noundef %8) #17
  %11 = getelementptr inbounds nuw i8, ptr %3, i64 176
  %12 = load ptr, ptr %11, align 8, !tbaa !172
  tail call void @g_free(ptr noundef %12) #17
  %13 = getelementptr inbounds nuw i8, ptr %3, i64 192
  %14 = load ptr, ptr %13, align 8, !tbaa !174
  tail call void @g_free(ptr noundef %14) #17
  %15 = load ptr, ptr %2, align 8, !tbaa !52
  tail call void @free(ptr noundef %15) #17
  %16 = load ptr, ptr %0, align 8, !tbaa !50
  tail call void @g_list_free(ptr noundef %16) #17
  store ptr null, ptr %0, align 8, !tbaa !50
  %17 = getelementptr inbounds nuw i8, ptr %0, i64 24
  %18 = load i32, ptr %17, align 8, !tbaa !48
  %.not.i = icmp eq i32 %18, 0
  br i1 %.not.i, label %dt_control_image_enumerator_cleanup.exit, label %19

19:                                               ; preds = %1
  tail call void @g_main_context_invoke(ptr noundef null, ptr noundef nonnull @_cursor_clear_busy, ptr noundef null) #17
  br label %dt_control_image_enumerator_cleanup.exit

dt_control_image_enumerator_cleanup.exit:         ; preds = %1, %19
  tail call void @free(ptr noundef nonnull %0) #17
  ret void
}